; Function Attrs: mustprogress uwtable
define void @_ZN8nanobind6detail7delitemEP7_objectPKc(ptr noundef %0, ptr noundef %1) local_unnamed_addr #15 {
  %3 = tail call ptr @PyUnicode_FromString(ptr noundef %1)
  %.not = icmp eq ptr %3, null
  br i1 %.not, label %4, label %5

4:                                                ; preds = %2
  tail call void @_ZN8nanobind6detail18raise_python_errorEv() #28
  unreachable

5:                                                ; preds = %2
  %6 = tail call i32 @PyObject_DelItem(ptr noundef %0, ptr noundef nonnull %3)
  %7 = load i64, ptr %3, align 8
  %8 = add nsw i64 %7, -1
  store i64 %8, ptr %3, align 8
  %.not.i = icmp eq i64 %8, 0
  br i1 %.not.i, label %9, label %_ZL10_Py_DECREFP7_object.exit

9:                                                ; preds = %5
  tail call void @_Py_Dealloc(ptr noundef nonnull %3)
  br label %_ZL10_Py_DECREFP7_object.exit

_ZL10_Py_DECREFP7_object.exit:                    ; preds = %5, %9
  %.not5 = icmp eq i32 %6, 0
  br i1 %.not5, label %11, label %10

10:                                               ; preds = %_ZL10_Py_DECREFP7_object.exit
  tail call void @_ZN8nanobind6detail18raise_python_errorEv() #28
  unreachable

11:                                               ; preds = %_ZL10_Py_DECREFP7_object.exit
  ret void
}